TN:
SF:/workspaces/brompton/bit_manipulation/src/bit_manipulation.cpp
FN:7,_ZN3com8brompton15BitManipulationC2Ev
FNDA:3,_ZN3com8brompton15BitManipulationC2Ev
FN:13,_ZN3com8brompton15BitManipulationC2Em
FNDA:3,_ZN3com8brompton15BitManipulationC2Em
FN:36,_ZN3com8brompton15BitManipulationD2Ev
FNDA:3,_ZN3com8brompton15BitManipulationD2Ev
FN:46,_ZN3com8brompton15BitManipulation6setBitEm
FNDA:78,_ZN3com8brompton15BitManipulation6setBitEm
FN:62,_ZN3com8brompton15BitManipulation8clearBitEm
FNDA:78,_ZN3com8brompton15BitManipulation8clearBitEm
FN:78,_ZNK3com8brompton15BitManipulation6getBitEm
FNDA:234,_ZNK3com8brompton15BitManipulation6getBitEm
DA:7,3
DA:8,3
DA:10,3
DA:13,3
DA:15,3
DA:18,3
DA:21,3
DA:25,3
DA:27,2
DA:31,3
DA:32,3
DA:34,3
DA:36,3
DA:39,3
DA:42,3
DA:43,3
DA:46,78
DA:48,78
DA:51,78
DA:54,78
DA:55,78
DA:58,0
DA:60,78
DA:62,78
DA:64,78
DA:67,78
DA:70,78
DA:71,78
DA:74,0
DA:76,78
DA:78,234
DA:80,234
DA:82,0
DA:86,234
DA:89,468
DA:90,234
end_of_record
SF:/workspaces/brompton/bit_manipulation/include/bit_manipulation.h
FN:31,_ZNK3com8brompton15BitManipulation5xDiv8Em
FNDA:393,_ZNK3com8brompton15BitManipulation5xDiv8Em
FN:37,_ZNK3com8brompton15BitManipulation5xMod8Em
FNDA:393,_ZNK3com8brompton15BitManipulation5xMod8Em
DA:31,393
DA:33,393
DA:37,393
DA:39,393
end_of_record
TN:
SF:/workspaces/brompton/bit_manipulation/tests/test_bit_manipulation.cpp
FN:9,_ZL9bitHelperRN3com8brompton15BitManipulationEm
FNDA:78,_ZL9bitHelperRN3com8brompton15BitManipulationEm
FN:31,_ZL30test_FirstAndLastBitSetInABytev
FNDA:1,_ZL30test_FirstAndLastBitSetInABytev
FN:44,_Z25test_LessThan8BitBoundaryv
FNDA:1,_Z25test_LessThan8BitBoundaryv
FN:54,_Z26test_LessThan16BitBoundaryv
FNDA:1,_Z26test_LessThan16BitBoundaryv
FN:63,main
FNDA:1,main
DA:9,78
DA:11,78
DA:13,78
DA:15,78
DA:16,78
DA:17,78
DA:19,78
DA:20,78
DA:21,78
DA:22,78
DA:24,78
DA:25,78
DA:26,78
DA:27,78
DA:28,78
DA:31,1
DA:33,1
DA:34,33
DA:36,32
DA:38,32
DA:39,32
DA:41,2
DA:44,1
DA:46,1
DA:47,3
DA:49,2
DA:51,2
DA:54,1
DA:56,1
DA:57,13
DA:59,12
DA:61,2
DA:63,1
DA:67,1
DA:69,1
DA:70,1
DA:71,1
DA:72,1
end_of_record
